target datalayout = "e-m:e-p270:32:32-p271:32:32-p272:64:64-i64:64-i128:128-f80:128-n8:16:32:64-S128"
target triple = "x86_64-pc-linux-gnu"

%struct._zval_struct = type { %union._zend_value, %union.anon, %union.anon.2 }
%union._zend_value = type { i64 }
%union.anon = type { i32 }
%union.anon.2 = type { i32 }
%struct._zend_refcounted_h = type { i32, %union.anon.3 }
%union.anon.3 = type { i32 }
%struct._zend_object = type { %struct._zend_refcounted_h, i32, ptr, ptr, ptr, [1 x %struct._zval_struct] }
%struct._zend_user_iterator = type { %struct._zend_object_iterator, ptr, %struct._zval_struct }
%struct._zend_object_iterator = type { %struct._zend_object, %struct._zval_struct, ptr, i64 }

; Function Attrs: nounwind uwtable
define void @zend_user_it_invalidate_current(ptr noundef %0) #0 {
  %2 = alloca ptr, align 8
  %3 = alloca ptr, align 8
  %4 = alloca ptr, align 8
  store ptr %0, ptr %3, align 8
  %5 = load ptr, ptr %3, align 8
  store ptr %5, ptr %4, align 8
  %6 = load ptr, ptr %4, align 8
  %7 = getelementptr inbounds %struct._zend_user_iterator, ptr %6, i32 0, i32 2
  store ptr %7, ptr %2, align 8
  %8 = load ptr, ptr %2, align 8
  %9 = getelementptr inbounds %struct._zval_struct, ptr %8, i32 0, i32 1
  %10 = load i8, ptr %9, align 8
  %11 = zext i8 %10 to i32
  %12 = icmp eq i32 %11, 0
  br i1 %12, label %21, label %13

13:                                               ; preds = %1
  %14 = load ptr, ptr %4, align 8
  %15 = getelementptr inbounds %struct._zend_user_iterator, ptr %14, i32 0, i32 2
  call void @zval_ptr_dtor(ptr noundef %15)
  br label %16

16:                                               ; preds = %13
  %17 = load ptr, ptr %4, align 8
  %18 = getelementptr inbounds %struct._zend_user_iterator, ptr %17, i32 0, i32 2
  %19 = getelementptr inbounds %struct._zval_struct, ptr %18, i32 0, i32 1
  store i32 0, ptr %19, align 8
  br label %20

20:                                               ; preds = %16
  br label %21

21:                                               ; preds = %20, %1
  ret void
}

; Function Attrs: nounwind uwtable
define internal void @zend_user_it_dtor(ptr noundef %0) #0 {
  %2 = alloca ptr, align 8
  %3 = alloca ptr, align 8
  %4 = alloca ptr, align 8
  store ptr %0, ptr %2, align 8
  %5 = load ptr, ptr %2, align 8
  store ptr %5, ptr %3, align 8
  %6 = load ptr, ptr %3, align 8
  %7 = getelementptr inbounds %struct._zend_user_iterator, ptr %6, i32 0, i32 0
  %8 = getelementptr inbounds %struct._zend_object_iterator, ptr %7, i32 0, i32 1
  store ptr %8, ptr %4, align 8
  %9 = load ptr, ptr %2, align 8
  call void @zend_user_it_invalidate_current(ptr noundef %9)
  %10 = load ptr, ptr %4, align 8
  call void @zval_ptr_dtor(ptr noundef %10)
  ret void
}