; Function Attrs: nounwind uwtable
define internal void @zend_user_it_dtor(ptr noundef %0) #0 {
  %2 = getelementptr inbounds i8, ptr %0, i64 104
  %3 = load i8, ptr %2, align 8
  %4 = icmp eq i8 %3, 0
  br i1 %4, label %zend_user_it_invalidate_current.exit, label %5

5:                                                ; preds = %1
  %6 = getelementptr inbounds i8, ptr %0, i64 96
  tail call void @zval_ptr_dtor(ptr noundef nonnull %6) #9
  store i32 0, ptr %2, align 8
  br label %zend_user_it_invalidate_current.exit

zend_user_it_invalidate_current.exit:             ; preds = %1, %5
  %7 = getelementptr inbounds i8, ptr %0, i64 56
  tail call void @zval_ptr_dtor(ptr noundef nonnull %7) #9
  ret void
}